(dp0
I0
(lp1
I0
aF-2835.271991477994
aI0
aF121.93100219640242
asI1
(lp2
I0
aF1246.589999999996
aF344.5643920274697
aF1009.7378999999955
asI2
(lp3
I0
aF-1899.999999999999
aF1121.9309999999955
aF898.3803949749057
asI3
(lp4
I0
aF799.365956547357
aF1006.9479951894456
aI0
asI6
(lp5
F1121.9309999997497
aF1385.0999999999967
aF-1899.999999999999
aF-1899.999999999999
asI8
(lp6
F885.1169726745463
aF-1899.9999792532417
aF-1899.9997399061897
aI0
asI10
(lp7
F-1899.9545800079022
aF-1899.5387760544402
aI0
aF1385.0999999991664
asI11
(lp8
F1246.5899999917883
aF1538.9999999999973
aF1246.5899999900578
aF-1899.999999999999
asI16
(lp9
F1385.0999999839244
aF-1899.9999999959205
aF-1899.9999999930915
aF1709.9999999999982
asI17
(lp10
F-1899.9999994806765
aF-1899.9999981612277
aF1538.9999975585513
aF1899.999999999999
as.