(dp0
I0
(lp1
I0
aF-2472.7244183910166
aI0
aF121.93100303077912
asI1
(lp2
I0
aF1246.589999999996
aF263.5686815119929
aF1009.7379000000105
asI2
(lp3
I0
aF-1899.999999999999
aF1121.9309999999973
aF917.1606037762416
asI3
(lp4
I0
aF945.9643274868005
aF1011.9650463319053
aI0
asI6
(lp5
F1121.931000000001
aF1385.0999999999967
aF-1899.999999999999
aF-1899.999999999999
asI8
(lp6
F994.6902441055927
aF-1899.9997110068775
aF-1899.9999927660526
aI0
asI10
(lp7
F-1899.8391811541255
aF-1899.8944867552218
aI0
aF1385.0999999996625
asI11
(lp8
F1246.589999999996
aF1538.9999999999973
aF1246.5899999963456
aF-1899.999999999999
asI16
(lp9
F1385.099999999365
aF-1899.999999999598
aF-1899.9999999995039
aF1709.9999999999982
asI17
(lp10
F-1899.9999997764482
aF-1899.9999999298473
aF1538.99999902016
aF1899.999999999999
as.