(dp0
S'00002020002220032122'
p1
(lp2
I0
aI0
aI0
aI0
asS'01002020002220032222'
p3
(lp4
F222.73977633556194
aF851.5155152863114
aF215.9578475956231
aF267.1336477933062
asS'00002020102220032222'
p5
(lp6
F100.0
aI0
aF0.0
aI0
asS'10002020002220032222'
p7
(lp8
F-797.8532609201958
aF2.3640265838815893
aF-795.5645948576783
aF-203.49829282718147
asS'00012020002220032222'
p9
(lp10
F11.065717800000002
aF0.0
aF100.41093000000001
aF0.0
asS'00002020002221032222'
p11
(lp12
I0
aF343.9
aI0
aF0.0
asS'00002020002220132222'
p13
(lp14
I0
aI0
aF9.0
aI0
asS'00102020002220032222'
p15
(lp16
F46.341
aF612.579511
aF104.50132870015193
aF8.331093000000003
asS'00002020001220032222'
p17
(lp18
I0
aI0
aI0
aI0
asS'00002010002220032222'
p19
(lp20
I0
aI0
aI0
aI0
asS'00002120002220032222'
p21
(lp22
F297.76952378641226
aF164.512759491
aF981.7519963685992
aF409.51
asS'00002020012220032222'
p23
(lp24
I0
aF47.07000000000001
aF0.0
aF468.55899999999997
asS'00001020002220032222'
p25
(lp26
I0
aI0
aI0
aI0
asS'00002021002220032222'
p27
(lp28
I0
aI0
aF100.0
aI0
as.