(dp0
I0
(lp1
F-1348.6921003065672
aF-897.7833243854803
aF-1110.2839368795057
aF-899.6545444489727
asI1
(lp2
F62.27046030110523
aF89.99671470031825
aF-409.4938527553831
aF-95.76088417247838
asI6
(lp3
F48.55715729991741
aF8.883302508132877
aF68.618940391
aF99.99955703072456
asI10
(lp4
F10.0
aI0
aI0
aI0
asI11
(lp5
F35.69397451643125
aF0.0
aF0.0
aF10.0
asI16
(lp6
F0.0
aI0
aI0
aF0.0
asI17
(lp7
F10.0
aI0
aI0
aI0
as.